target datalayout = "e-m:e-p270:32:32-p271:32:32-p272:64:64-i64:64-i128:128-f80:128-n8:16:32:64-S128"
target triple = "x86_64-pc-linux-gnu"

; Function Attrs: mustprogress uwtable
define internal noundef zeroext i1 @_ZN12_GLOBAL__N_120_isStatefulSepListOfEPFbRiPKciES2_i(ptr noundef %0, ptr noundef %1, i32 noundef %2) #1 {
  %4 = alloca i1, align 1
  %5 = alloca ptr, align 8
  %6 = alloca ptr, align 8
  %7 = alloca i32, align 4
  %8 = alloca i32, align 4
  %9 = alloca ptr, align 8
  %10 = alloca ptr, align 8
  %11 = alloca i32, align 4
  %12 = alloca i32, align 4
  store ptr %0, ptr %5, align 8, !tbaa !22
  store ptr %1, ptr %6, align 8, !tbaa !17
  store i32 %2, ptr %7, align 4, !tbaa !14
  call void @llvm.lifetime.start.p0(i64 4, ptr %8) #12
  store i32 0, ptr %8, align 4, !tbaa !14
  call void @llvm.lifetime.start.p0(i64 8, ptr %9) #12
  call void @llvm.lifetime.start.p0(i64 8, ptr %10) #12
  %13 = load ptr, ptr %6, align 8, !tbaa !17
  store ptr %13, ptr %10, align 8, !tbaa !17
  call void @llvm.lifetime.start.p0(i64 4, ptr %11) #12
  store i32 0, ptr %11, align 4, !tbaa !14
  %14 = load i32, ptr %7, align 4, !tbaa !14
  %15 = icmp slt i32 %14, 0
  br i1 %15, label %16, label %20

16:                                               ; preds = %3
  %17 = load ptr, ptr %6, align 8, !tbaa !17
  %18 = call i64 @strlen(ptr noundef %17) #15
  %19 = trunc i64 %18 to i32
  store i32 %19, ptr %7, align 4, !tbaa !14
  br label %20

20:                                               ; preds = %16, %3
  %21 = load ptr, ptr %6, align 8, !tbaa !17
  store ptr %21, ptr %9, align 8, !tbaa !17
  br label %22

22:                                               ; preds = %43, %20
  %23 = load i32, ptr %7, align 4, !tbaa !14
  %24 = icmp sgt i32 %23, 0
  br i1 %24, label %25, label %48

25:                                               ; preds = %22
  %26 = load ptr, ptr %9, align 8, !tbaa !17
  %27 = load i8, ptr %26, align 1, !tbaa !23
  %28 = sext i8 %27 to i32
  %29 = icmp eq i32 %28, 45
  br i1 %29, label %30, label %39

30:                                               ; preds = %25
  %31 = load ptr, ptr %5, align 8, !tbaa !22
  %32 = load ptr, ptr %10, align 8, !tbaa !17
  %33 = load i32, ptr %11, align 4, !tbaa !14
  %34 = call noundef zeroext i1 %31(ptr noundef nonnull align 4 dereferenceable(4) %8, ptr noundef %32, i32 noundef %33)
  br i1 %34, label %36, label %35

35:                                               ; preds = %30
  store i1 false, ptr %4, align 1
  store i32 1, ptr %12, align 4
  br label %58

36:                                               ; preds = %30
  store i32 0, ptr %11, align 4, !tbaa !14
  %37 = load ptr, ptr %9, align 8, !tbaa !17
  %38 = getelementptr inbounds i8, ptr %37, i64 1
  store ptr %38, ptr %10, align 8, !tbaa !17
  br label %42

39:                                               ; preds = %25
  %40 = load i32, ptr %11, align 4, !tbaa !14
  %41 = add nsw i32 %40, 1
  store i32 %41, ptr %11, align 4, !tbaa !14
  br label %42

42:                                               ; preds = %39, %36
  br label %43

43:                                               ; preds = %42
  %44 = load ptr, ptr %9, align 8, !tbaa !17
  %45 = getelementptr inbounds nuw i8, ptr %44, i32 1
  store ptr %45, ptr %9, align 8, !tbaa !17
  %46 = load i32, ptr %7, align 4, !tbaa !14
  %47 = add nsw i32 %46, -1
  store i32 %47, ptr %7, align 4, !tbaa !14
  br label %22, !llvm.loop !29

48:                                               ; preds = %22
  %49 = load ptr, ptr %5, align 8, !tbaa !22
  %50 = load ptr, ptr %10, align 8, !tbaa !17
  %51 = load i32, ptr %11, align 4, !tbaa !14
  %52 = call noundef zeroext i1 %49(ptr noundef nonnull align 4 dereferenceable(4) %8, ptr noundef %50, i32 noundef %51)
  br i1 %52, label %53, label %57

53:                                               ; preds = %48
  %54 = load i32, ptr %8, align 4, !tbaa !14
  %55 = icmp sge i32 %54, 0
  br i1 %55, label %56, label %57

56:                                               ; preds = %53
  store i1 true, ptr %4, align 1
  store i32 1, ptr %12, align 4
  br label %58

57:                                               ; preds = %53, %48
  store i1 false, ptr %4, align 1
  store i32 1, ptr %12, align 4
  br label %58

58:                                               ; preds = %57, %56, %35
  call void @llvm.lifetime.end.p0(i64 4, ptr %11) #12
  call void @llvm.lifetime.end.p0(i64 8, ptr %10) #12
  call void @llvm.lifetime.end.p0(i64 8, ptr %9) #12
  call void @llvm.lifetime.end.p0(i64 4, ptr %8) #12
  %59 = load i1, ptr %4, align 1
  ret i1 %59
}

; Function Attrs: mustprogress uwtable
define noundef zeroext i1 @_Z34ultag_isUnicodeExtensionSubtags_77PKci(ptr noundef %0, i32 noundef %1) #1 {
  %3 = alloca ptr, align 8
  %4 = alloca i32, align 4
  store ptr %0, ptr %3, align 8, !tbaa !17
  store i32 %1, ptr %4, align 4, !tbaa !14
  %5 = load ptr, ptr %3, align 8, !tbaa !17
  %6 = load i32, ptr %4, align 4, !tbaa !14
  %7 = call noundef zeroext i1 @_ZN12_GLOBAL__N_120_isStatefulSepListOfEPFbRiPKciES2_i(ptr noundef @_ZN12_GLOBAL__N_125_isUnicodeExtensionSubtagERiPKci, ptr noundef %5, i32 noundef %6)
  ret i1 %7
}