; Function Attrs: mustprogress uwtable
define noundef zeroext i1 @_Z34ultag_isUnicodeExtensionSubtags_77PKci(ptr noundef readonly captures(none) %0, i32 noundef %1) local_unnamed_addr #1 {
  %3 = alloca i32, align 4
  call void @llvm.lifetime.start.p0(i64 4, ptr nonnull %3) #17
  store i32 0, ptr %3, align 4, !tbaa !12
  %4 = icmp slt i32 %1, 0
  br i1 %4, label %5, label %8

5:                                                ; preds = %2
  %6 = tail call i64 @strlen(ptr noundef nonnull dereferenceable(1) %0) #20
  %7 = trunc i64 %6 to i32
  br label %8

8:                                                ; preds = %5, %2
  %.020.i = phi i32 [ %7, %5 ], [ %1, %2 ]
  %9 = icmp sgt i32 %.020.i, 0
  br i1 %9, label %.lr.ph.i, label %._crit_edge.i

.lr.ph.i:                                         ; preds = %8, %18
  %.029.i = phi i32 [ %.1.i, %18 ], [ 0, %8 ]
  %.01728.i = phi ptr [ %.118.i, %18 ], [ %0, %8 ]
  %.01927.i = phi ptr [ %19, %18 ], [ %0, %8 ]
  %.12126.i = phi i32 [ %20, %18 ], [ %.020.i, %8 ]
  %10 = load i8, ptr %.01927.i, align 1, !tbaa !15
  %11 = icmp eq i8 %10, 45
  br i1 %11, label %12, label %16

12:                                               ; preds = %.lr.ph.i
  %13 = call fastcc noundef zeroext i1 @_ZN12_GLOBAL__N_125_isUnicodeExtensionSubtagERiPKci(ptr noundef nonnull align 4 dereferenceable(4) %3, ptr noundef %.01728.i, i32 noundef %.029.i), !callees !22
  br i1 %13, label %14, label %_ZN12_GLOBAL__N_120_isStatefulSepListOfEPFbRiPKciES2_i.exit

14:                                               ; preds = %12
  %15 = getelementptr inbounds nuw i8, ptr %.01927.i, i64 1
  br label %18

16:                                               ; preds = %.lr.ph.i
  %17 = add nsw i32 %.029.i, 1
  br label %18

18:                                               ; preds = %16, %14
  %.118.i = phi ptr [ %15, %14 ], [ %.01728.i, %16 ]
  %.1.i = phi i32 [ 0, %14 ], [ %17, %16 ]
  %19 = getelementptr inbounds nuw i8, ptr %.01927.i, i64 1
  %20 = add nsw i32 %.12126.i, -1
  %21 = icmp sgt i32 %.12126.i, 1
  br i1 %21, label %.lr.ph.i, label %._crit_edge.i, !llvm.loop !23

._crit_edge.i:                                    ; preds = %18, %8
  %.017.lcssa.i = phi ptr [ %0, %8 ], [ %.118.i, %18 ]
  %.0.lcssa.i = phi i32 [ 0, %8 ], [ %.1.i, %18 ]
  %22 = call fastcc noundef zeroext i1 @_ZN12_GLOBAL__N_125_isUnicodeExtensionSubtagERiPKci(ptr noundef nonnull align 4 dereferenceable(4) %3, ptr noundef %.017.lcssa.i, i32 noundef %.0.lcssa.i), !callees !22
  %23 = load i32, ptr %3, align 4
  %24 = icmp sgt i32 %23, -1
  %or.cond.i = select i1 %22, i1 %24, i1 false
  br label %_ZN12_GLOBAL__N_120_isStatefulSepListOfEPFbRiPKciES2_i.exit

_ZN12_GLOBAL__N_120_isStatefulSepListOfEPFbRiPKciES2_i.exit: ; preds = %12, %._crit_edge.i
  %.022.i = phi i1 [ %or.cond.i, %._crit_edge.i ], [ false, %12 ]
  call void @llvm.lifetime.end.p0(i64 4, ptr nonnull %3) #17
  ret i1 %.022.i
}